---
triple:          'x86_64-apple-darwin'
binary-path:     toy
relocations:
  - { offset: 0x44, size: 0x8, addend: 0x0, symName: __ZN4llvm30VerifyDisableABIBreakingChecksE, symObjAddr: 0x4060, symBinAddr: 0x10000C210, symSize: 0x0 }
  - { offset: 0x403E3, size: 0x8, addend: 0x0, symName: __ZL13IdentifierStr, symObjAddr: 0x1B4D30, symBinAddr: 0x10000C220, symSize: 0x0 }
  - { offset: 0x56E3A, size: 0x8, addend: 0x0, symName: __ZNSt3__119piecewise_constructE, symObjAddr: 0x44FB, symBinAddr: 0x10000784B, symSize: 0x0 }
  - { offset: 0x5DD1B, size: 0x8, addend: 0x0, symName: __ZNSt3__127__tree_balance_after_insertB8ne180100IPNS_16__tree_node_baseIPvEEEEvT_S5_, symObjAddr: 0x24B0, symBinAddr: 0x100005B00, symSize: 0x180 }
  - { offset: 0x5E9B3, size: 0x8, addend: 0x0, symName: __ZNSt3__120__throw_length_errorB8ne180100EPKc, symObjAddr: 0x1550, symBinAddr: 0x100004BA0, symSize: 0x50 }
  - { offset: 0x60EE4, size: 0x8, addend: 0x0, symName: __ZSt28__throw_bad_array_new_lengthB8ne180100v, symObjAddr: 0x15D0, symBinAddr: 0x100004C20, symSize: 0x40 }
  - { offset: 0x610E8, size: 0x8, addend: 0x0, symName: __ZL15BinopPrecedence, symObjAddr: 0x1B4D48, symBinAddr: 0x10000C238, symSize: 0x0 }
  - { offset: 0x6154E, size: 0x8, addend: 0x0, symName: __ZL10TheContext, symObjAddr: 0x1B4D60, symBinAddr: 0x10000C250, symSize: 0x0 }
  - { offset: 0x64FF4, size: 0x8, addend: 0x0, symName: __ZL9TheModule, symObjAddr: 0x1B4D68, symBinAddr: 0x10000C258, symSize: 0x0 }
  - { offset: 0x650B0, size: 0x8, addend: 0x0, symName: __ZL7Builder, symObjAddr: 0x1B4D70, symBinAddr: 0x10000C260, symSize: 0x0 }
  - { offset: 0x65B72, size: 0x8, addend: 0x0, symName: __ZL11NamedValues, symObjAddr: 0x1B4D78, symBinAddr: 0x10000C268, symSize: 0x0 }
  - { offset: 0x65F20, size: 0x8, addend: 0x0, symName: __ZL6NumVal, symObjAddr: 0x1B4D98, symBinAddr: 0x10000C288, symSize: 0x0 }
  - { offset: 0x65F39, size: 0x8, addend: 0x0, symName: __ZL6CurTok, symObjAddr: 0x1B4D90, symBinAddr: 0x10000C280, symSize: 0x0 }
  - { offset: 0x67059, size: 0x8, addend: 0x0, symName: __ZNSt3__13mapIciNS_4lessIcEENS_9allocatorINS_4pairIKciEEEEED1B8ne180100Ev, symObjAddr: 0x0, symBinAddr: 0x100003650, symSize: 0x10 }
  - { offset: 0x67115, size: 0x8, addend: 0x0, symName: __ZNSt3__16__treeINS_12__value_typeIciEENS_19__map_value_compareIcS2_NS_4lessIcEELb1EEENS_9allocatorIS2_EEE7destroyEPNS_11__tree_nodeIS2_PvEE, symObjAddr: 0x3C90, symBinAddr: 0x1000072E0, symSize: 0x36 }
  - { offset: 0x672ED, size: 0x8, addend: 0x0, symName: __ZNSt3__110unique_ptrIN4llvm11LLVMContextENS_14default_deleteIS2_EEED1B8ne180100Ev, symObjAddr: 0x10, symBinAddr: 0x100003660, symSize: 0x40 }
  - { offset: 0x67409, size: 0x8, addend: 0x0, symName: __ZNSt3__110unique_ptrIN4llvm6ModuleENS_14default_deleteIS2_EEED1B8ne180100Ev, symObjAddr: 0x50, symBinAddr: 0x1000036A0, symSize: 0x40 }
  - { offset: 0x67677, size: 0x8, addend: 0x0, symName: __ZNSt3__110unique_ptrIN4llvm9IRBuilderINS1_14ConstantFolderENS1_24IRBuilderDefaultInserterEEENS_14default_deleteIS5_EEED1B8ne180100Ev, symObjAddr: 0x90, symBinAddr: 0x1000036E0, symSize: 0x50 }
  - { offset: 0x67920, size: 0x8, addend: 0x0, symName: __ZNSt3__13mapINS_12basic_stringIcNS_11char_traitsIcEENS_9allocatorIcEEEEPN4llvm5ValueENS_4lessIS6_EENS4_INS_4pairIKS6_S9_EEEEED1B8ne180100Ev, symObjAddr: 0xE0, symBinAddr: 0x100003730, symSize: 0x10 }
  - { offset: 0x679DC, size: 0x8, addend: 0x0, symName: __ZNSt3__16__treeINS_12__value_typeINS_12basic_stringIcNS_11char_traitsIcEENS_9allocatorIcEEEEPN4llvm5ValueEEENS_19__map_value_compareIS7_SB_NS_4lessIS7_EELb1EEENS5_ISB_EEE7destroyEPNS_11__tree_nodeISB_PvEE, symObjAddr: 0x3AC0, symBinAddr: 0x100007110, symSize: 0x50 }
  - { offset: 0x67D0C, size: 0x8, addend: 0x0, symName: __Z9LogErrorVPKc, symObjAddr: 0xF0, symBinAddr: 0x100003740, symSize: 0x30 }
  - { offset: 0x692D5, size: 0x8, addend: 0x0, symName: _main, symObjAddr: 0x120, symBinAddr: 0x100003770, symSize: 0x890 }
  - { offset: 0x6B813, size: 0x8, addend: 0x0, symName: __ZL12getNextTokenv, symObjAddr: 0x9B0, symBinAddr: 0x100004000, symSize: 0x2D0 }
  - { offset: 0x6BFB9, size: 0x8, addend: 0x0, symName: __ZL14ParsePrototypev, symObjAddr: 0xFC0, symBinAddr: 0x100004610, symSize: 0x2A0 }
  - { offset: 0x6CC6C, size: 0x8, addend: 0x0, symName: __ZL15ParseExpressionv, symObjAddr: 0x1260, symBinAddr: 0x1000048B0, symSize: 0x160 }
  - { offset: 0x6D283, size: 0x8, addend: 0x0, symName: __ZN12_GLOBAL__N_111FunctionAST7codegenEv, symObjAddr: 0xC80, symBinAddr: 0x1000042D0, symSize: 0x280 }
  - { offset: 0x6DC97, size: 0x8, addend: 0x0, symName: __ZN12_GLOBAL__N_112PrototypeAST7codegenEv, symObjAddr: 0x37A0, symBinAddr: 0x100006DF0, symSize: 0x250 }
  - { offset: 0x6E44F, size: 0x8, addend: 0x0, symName: __ZNSt3__110unique_ptrIN12_GLOBAL__N_111FunctionASTENS_14default_deleteIS2_EEED1B8ne180100Ev, symObjAddr: 0xF00, symBinAddr: 0x100004550, symSize: 0xC0 }
  - { offset: 0x6E9E1, size: 0x8, addend: 0x0, symName: __ZNSt3__110unique_ptrIN12_GLOBAL__N_112PrototypeASTENS_14default_deleteIS2_EEED1B8ne180100Ev, symObjAddr: 0x13C0, symBinAddr: 0x100004A10, symSize: 0x90 }
  - { offset: 0x6EE2A, size: 0x8, addend: 0x0, symName: __ZNSt3__16vectorINS_12basic_stringIcNS_11char_traitsIcEENS_9allocatorIcEEEENS4_IS6_EEED1B8ne180100Ev, symObjAddr: 0x1450, symBinAddr: 0x100004AA0, symSize: 0x70 }
  - { offset: 0x6F8B0, size: 0x8, addend: 0x0, symName: __ZNSt3__16__treeINS_12__value_typeINS_12basic_stringIcNS_11char_traitsIcEENS_9allocatorIcEEEEPN4llvm5ValueEEENS_19__map_value_compareIS7_SB_NS_4lessIS7_EELb1EEENS5_ISB_EEE25__emplace_unique_key_argsIS7_JRKNS_21piecewise_construct_tENS_5tupleIJOS7_EEENSM_IJEEEEEENS_4pairINS_15__tree_iteratorISB_PNS_11__tree_nodeISB_PvEElEEbEERKT_DpOT0_, symObjAddr: 0x3B10, symBinAddr: 0x100007160, symSize: 0x180 }
  - { offset: 0x6FECA, size: 0x8, addend: 0x0, symName: __ZN4llvm13IRBuilderBase9CreateRetEPNS_5ValueE, symObjAddr: 0x39F0, symBinAddr: 0x100007040, symSize: 0xC0 }
  - { offset: 0x700A1, size: 0x8, addend: 0x0, symName: __ZNKSt3__112basic_stringIcNS_11char_traitsIcEENS_9allocatorIcEEE20__throw_length_errorB8ne180100Ev, symObjAddr: 0x1540, symBinAddr: 0x100004B90, symSize: 0x10 }
  - { offset: 0x700CB, size: 0x8, addend: 0x0, symName: __ZNSt3__120__throw_length_errorB8ne180100EPKc, symObjAddr: 0x1550, symBinAddr: 0x100004BA0, symSize: 0x50 }
  - { offset: 0x70411, size: 0x8, addend: 0x0, symName: __ZNSt3__112basic_stringIcNS_11char_traitsIcEENS_9allocatorIcEEE25__init_copy_ctor_externalEPKcm, symObjAddr: 0x14C0, symBinAddr: 0x100004B10, symSize: 0x80 }
  - { offset: 0x70751, size: 0x8, addend: 0x0, symName: __ZNSt3__16vectorINS_12basic_stringIcNS_11char_traitsIcEENS_9allocatorIcEEEENS4_IS6_EEE21__push_back_slow_pathIRKS6_EEPS6_OT_, symObjAddr: 0x1610, symBinAddr: 0x100004C60, symSize: 0x1F0 }
  - { offset: 0x71165, size: 0x8, addend: 0x0, symName: __ZL19ParseIdentifierExprv, symObjAddr: 0x1C40, symBinAddr: 0x100005290, symSize: 0x520 }
  - { offset: 0x725F8, size: 0x8, addend: 0x0, symName: __ZL13ParseBinOpRHSiNSt3__110unique_ptrIN12_GLOBAL__N_17ExprASTENS_14default_deleteIS2_EEEE, symObjAddr: 0x1870, symBinAddr: 0x100004EC0, symSize: 0x3D0 }
  - { offset: 0x73831, size: 0x8, addend: 0x0, symName: __ZNSt12length_errorC1B8ne180100EPKc, symObjAddr: 0x15A0, symBinAddr: 0x100004BF0, symSize: 0x30 }
  - { offset: 0x73C85, size: 0x8, addend: 0x0, symName: __ZNKSt3__16vectorINS_12basic_stringIcNS_11char_traitsIcEENS_9allocatorIcEEEENS4_IS6_EEE20__throw_length_errorB8ne180100Ev, symObjAddr: 0x1860, symBinAddr: 0x100004EB0, symSize: 0x10 }
  - { offset: 0x73CAF, size: 0x8, addend: 0x0, symName: __ZL13ParseBinOpRHSiNSt3__110unique_ptrIN12_GLOBAL__N_17ExprASTENS_14default_deleteIS2_EEEE, symObjAddr: 0x1870, symBinAddr: 0x100004EC0, symSize: 0x3D0 }
  - { offset: 0x73CBA, size: 0x8, addend: 0x0, symName: __ZNSt3__114__split_bufferINS_12basic_stringIcNS_11char_traitsIcEENS_9allocatorIcEEEERNS4_IS6_EEED1Ev, symObjAddr: 0x1800, symBinAddr: 0x100004E50, symSize: 0x60 }
  - { offset: 0x74A2D, size: 0x8, addend: 0x0, symName: __ZNKSt3__16vectorINS_10unique_ptrIN12_GLOBAL__N_17ExprASTENS_14default_deleteIS3_EEEENS_9allocatorIS6_EEE20__throw_length_errorB8ne180100Ev, symObjAddr: 0x2630, symBinAddr: 0x100005C80, symSize: 0x10 }
  - { offset: 0x74A53, size: 0x8, addend: 0x0, symName: __ZN12_GLOBAL__N_111CallExprASTD1Ev, symObjAddr: 0x2640, symBinAddr: 0x100005C90, symSize: 0x90 }
  - { offset: 0x74A5E, size: 0x8, addend: 0x0, symName: __ZNSt3__16vectorINS_10unique_ptrIN12_GLOBAL__N_17ExprASTENS_14default_deleteIS3_EEEENS_9allocatorIS6_EEED1B8ne180100Ev, symObjAddr: 0x2160, symBinAddr: 0x1000057B0, symSize: 0x80 }
  - { offset: 0x74C6A, size: 0x8, addend: 0x0, symName: __ZN12_GLOBAL__N_115VariableExprASTD1Ev, symObjAddr: 0x21E0, symBinAddr: 0x100005830, symSize: 0x20 }
  - { offset: 0x74DCA, size: 0x8, addend: 0x0, symName: __ZN12_GLOBAL__N_115VariableExprASTD0Ev, symObjAddr: 0x2200, symBinAddr: 0x100005850, symSize: 0x40 }
  - { offset: 0x74DFA, size: 0x8, addend: 0x0, symName: __ZN12_GLOBAL__N_115VariableExprASTD0Ev, symObjAddr: 0x2200, symBinAddr: 0x100005850, symSize: 0x40 }
  - { offset: 0x74E19, size: 0x8, addend: 0x0, symName: __ZN12_GLOBAL__N_115VariableExprASTD0Ev, symObjAddr: 0x2200, symBinAddr: 0x100005850, symSize: 0x40 }
  - { offset: 0x74F9C, size: 0x8, addend: 0x0, symName: __ZN12_GLOBAL__N_115VariableExprAST7codegenEv, symObjAddr: 0x2240, symBinAddr: 0x100005890, symSize: 0x60 }
  - { offset: 0x7506C, size: 0x8, addend: 0x0, symName: __ZNSt3__16__treeINS_12__value_typeINS_12basic_stringIcNS_11char_traitsIcEENS_9allocatorIcEEEEPN4llvm5ValueEEENS_19__map_value_compareIS7_SB_NS_4lessIS7_EELb1EEENS5_ISB_EEE25__emplace_unique_key_argsIS7_JRKNS_21piecewise_construct_tENS_5tupleIJRKS7_EEENSM_IJEEEEEENS_4pairINS_15__tree_iteratorISB_PNS_11__tree_nodeISB_PvEElEEbEERKT_DpOT0_, symObjAddr: 0x22A0, symBinAddr: 0x1000058F0, symSize: 0x1C0 }
  - { offset: 0x75E14, size: 0x8, addend: 0x0, symName: __ZNSt3__110unique_ptrINS_11__tree_nodeINS_12__value_typeINS_12basic_stringIcNS_11char_traitsIcEENS_9allocatorIcEEEEPN4llvm5ValueEEEPvEENS_22__tree_node_destructorINS6_ISE_EEEEED1B8ne180100Ev, symObjAddr: 0x2460, symBinAddr: 0x100005AB0, symSize: 0x50 }
  - { offset: 0x7623A, size: 0x8, addend: 0x0, symName: __ZN12_GLOBAL__N_111CallExprASTD1Ev, symObjAddr: 0x2640, symBinAddr: 0x100005C90, symSize: 0x90 }
  - { offset: 0x7659B, size: 0x8, addend: 0x0, symName: __ZN12_GLOBAL__N_111CallExprASTD0Ev, symObjAddr: 0x26D0, symBinAddr: 0x100005D20, symSize: 0x80 }
  - { offset: 0x77028, size: 0x8, addend: 0x0, symName: __ZN12_GLOBAL__N_111CallExprAST7codegenEv, symObjAddr: 0x2750, symBinAddr: 0x100005DA0, symSize: 0x3A0 }
  - { offset: 0x77CE0, size: 0x8, addend: 0x0, symName: __ZN4llvm13IRBuilderBase10CreateCallEPNS_12FunctionTypeEPNS_5ValueENS_8ArrayRefIS4_EERKNS_5TwineEPNS_6MDNodeE, symObjAddr: 0x2B00, symBinAddr: 0x100006150, symSize: 0x110 }
  - { offset: 0x78016, size: 0x8, addend: 0x0, symName: __ZNKSt3__16vectorIPN4llvm5ValueENS_9allocatorIS3_EEE20__throw_length_errorB8ne180100Ev, symObjAddr: 0x2AF0, symBinAddr: 0x100006140, symSize: 0x10 }
  - { offset: 0x78040, size: 0x8, addend: 0x0, symName: __ZN4llvm13IRBuilderBase10CreateCallEPNS_12FunctionTypeEPNS_5ValueENS_8ArrayRefIS4_EERKNS_5TwineEPNS_6MDNodeE, symObjAddr: 0x2B00, symBinAddr: 0x100006150, symSize: 0x110 }
  - { offset: 0x7822A, size: 0x8, addend: 0x0, symName: __ZN4llvm8CallInst6CreateEPNS_12FunctionTypeEPNS_5ValueENS_8ArrayRefIS4_EENS5_INS_17OperandBundleDefTIS4_EEEERKNS_5TwineEPNS_11InstructionE, symObjAddr: 0x2C10, symBinAddr: 0x100006260, symSize: 0x180 }
  - { offset: 0x786B9, size: 0x8, addend: 0x0, symName: __ZN4llvm13isa_impl_wrapINS_14FPMathOperatorEPKNS_8CallInstES4_E4doitERKS4_, symObjAddr: 0x2D90, symBinAddr: 0x1000063E0, symSize: 0x120 }
  - { offset: 0x790AF, size: 0x8, addend: 0x0, symName: __ZN12_GLOBAL__N_113NumberExprASTD1Ev, symObjAddr: 0x2EB0, symBinAddr: 0x100006500, symSize: 0x10 }
  - { offset: 0x790D8, size: 0x8, addend: 0x0, symName: __ZN12_GLOBAL__N_113NumberExprASTD0Ev, symObjAddr: 0x2EC0, symBinAddr: 0x100006510, symSize: 0x10 }
  - { offset: 0x79247, size: 0x8, addend: 0x0, symName: __ZN12_GLOBAL__N_113NumberExprAST7codegenEv, symObjAddr: 0x2ED0, symBinAddr: 0x100006520, symSize: 0xE0 }
  - { offset: 0x79401, size: 0x8, addend: 0x0, symName: __ZNSt3__110unique_ptrIA_N4llvm7APFloatENS_14default_deleteIS3_EEE5resetB8ne180100EDn, symObjAddr: 0x2FF0, symBinAddr: 0x100006640, symSize: 0x90 }
  - { offset: 0x79555, size: 0x8, addend: 0x0, symName: __ZN4llvm7APFloatD1Ev, symObjAddr: 0x2FB0, symBinAddr: 0x100006600, symSize: 0x40 }
  - { offset: 0x796C0, size: 0x8, addend: 0x0, symName: __ZN12_GLOBAL__N_113BinaryExprASTD1Ev, symObjAddr: 0x3080, symBinAddr: 0x1000066D0, symSize: 0x50 }
  - { offset: 0x79857, size: 0x8, addend: 0x0, symName: __ZN12_GLOBAL__N_113BinaryExprASTD0Ev, symObjAddr: 0x30D0, symBinAddr: 0x100006720, symSize: 0x50 }
  - { offset: 0x79A94, size: 0x8, addend: 0x0, symName: __ZN12_GLOBAL__N_113BinaryExprAST7codegenEv, symObjAddr: 0x3120, symBinAddr: 0x100006770, symSize: 0x1F0 }
  - { offset: 0x79E95, size: 0x8, addend: 0x0, symName: __ZN4llvm13IRBuilderBase10CreateFMulEPNS_5ValueES2_RKNS_5TwineEPNS_6MDNodeE, symObjAddr: 0x3570, symBinAddr: 0x100006BC0, symSize: 0x130 }
  - { offset: 0x7A0F5, size: 0x8, addend: 0x0, symName: __ZN4llvm13IRBuilderBase10CreateFSubEPNS_5ValueES2_RKNS_5TwineEPNS_6MDNodeE, symObjAddr: 0x3440, symBinAddr: 0x100006A90, symSize: 0x130 }
  - { offset: 0x7A355, size: 0x8, addend: 0x0, symName: __ZN4llvm13IRBuilderBase10CreateFAddEPNS_5ValueES2_RKNS_5TwineEPNS_6MDNodeE, symObjAddr: 0x3310, symBinAddr: 0x100006960, symSize: 0x130 }
  - { offset: 0x7A5B5, size: 0x8, addend: 0x0, symName: __ZN4llvm13IRBuilderBase12CreateUIToFPEPNS_5ValueEPNS_4TypeERKNS_5TwineE, symObjAddr: 0x36A0, symBinAddr: 0x100006CF0, symSize: 0x100 }
  - { offset: 0x7AD4F, size: 0x8, addend: 0x0, symName: __ZNKSt3__16vectorIPN4llvm4TypeENS_9allocatorIS3_EEE20__throw_length_errorB8ne180100Ev, symObjAddr: 0x3AB0, symBinAddr: 0x100007100, symSize: 0x10 }
  - { offset: 0x7AD79, size: 0x8, addend: 0x0, symName: __ZNSt3__16__treeINS_12__value_typeINS_12basic_stringIcNS_11char_traitsIcEENS_9allocatorIcEEEEPN4llvm5ValueEEENS_19__map_value_compareIS7_SB_NS_4lessIS7_EELb1EEENS5_ISB_EEE7destroyEPNS_11__tree_nodeISB_PvEE, symObjAddr: 0x3AC0, symBinAddr: 0x100007110, symSize: 0x50 }
  - { offset: 0x7B333, size: 0x8, addend: 0x0, symName: __GLOBAL__sub_I_toy.cpp, symObjAddr: 0x3F80, symBinAddr: 0x100007320, symSize: 0xDC }
...
